; Function Attrs: nounwind sspstrong uwtable
define dso_local i64 @rb_execarg_extract_options(i64 noundef %0, i64 noundef %1) local_unnamed_addr #1 {
  %3 = alloca [2 x i64], align 16
  call void @llvm.lifetime.start.p0(i64 16, ptr nonnull %3) #27
  %4 = inttoptr i64 %1 to ptr
  %5 = load i64, ptr %4, align 8, !tbaa !69
  %6 = and i64 %5, 32768
  %.not.i.i.i = icmp eq i64 %6, 0
  br i1 %.not.i.i.i, label %7, label %10

7:                                                ; preds = %2
  %8 = lshr i64 %5, 16
  %9 = and i64 %8, 15
  br label %RHASH_EMPTY_P.exit

10:                                               ; preds = %2
  %11 = add i64 %1, 24
  %12 = inttoptr i64 %11 to ptr
  %13 = getelementptr inbounds nuw i8, ptr %12, i64 16
  %14 = load i64, ptr %13, align 8, !tbaa !96
  br label %RHASH_EMPTY_P.exit

RHASH_EMPTY_P.exit:                               ; preds = %7, %10
  %.0.i.i = phi i64 [ %9, %7 ], [ %14, %10 ]
  %15 = icmp eq i64 %.0.i.i, 0
  br i1 %15, label %21, label %16

16:                                               ; preds = %RHASH_EMPTY_P.exit
  store i64 %0, ptr %3, align 16, !tbaa !43
  %17 = getelementptr inbounds nuw i8, ptr %3, i64 8
  store i64 4, ptr %17, align 8, !tbaa !43
  %18 = ptrtoint ptr %3 to i64
  %19 = call i32 @rb_hash_stlike_foreach(i64 noundef %1, ptr noundef nonnull @check_exec_options_i_extract, i64 noundef %18) #27
  %20 = load i64, ptr %17, align 8, !tbaa !43
  br label %21

21:                                               ; preds = %RHASH_EMPTY_P.exit, %16
  %.0 = phi i64 [ %20, %16 ], [ 4, %RHASH_EMPTY_P.exit ]
  call void @llvm.lifetime.end.p0(i64 16, ptr nonnull %3) #27
  ret i64 %.0
}